(dp0
S'j8m802fsq_raw.fits'
p1
(lp2
F53.175481533369997
aF-27.799515520900002
asS'j8m80fdlq_raw.fits'
p3
(lp4
F53.174686621719999
aF-27.79906252176
asS'j8m815n4q_raw.fits'
p5
(lp6
F53.175466995699999
aF-27.799461660150001
asS'j8m89fd3q_raw.fits'
p7
(lp8
F53.152507292839999
aF-27.802343441409999
asS'j8m842m6q_raw.fits'
p9
(lp10
F53.174759394600002
aF-27.800283873310001
asS'j8m815nrq_raw.fits'
p11
(lp12
F53.175519776569999
aF-27.799471458319999
asS'j8m897czq_raw.fits'
p13
(lp14
F53.15304146431
aF-27.801590950960001
asS'j8m842mfq_raw.fits'
p15
(lp16
F53.174810590299998
aF-27.800268733149998
asS'j8m815nbq_raw.fits'
p17
(lp18
F53.175516855289999
aF-27.799443418820001
asS'j8m8adxoq_raw.fits'
p19
(lp20
F53.153073744830003
aF-27.801673672949999
asS'j8m82cijq_raw.fits'
p21
(lp22
F53.17471776955
aF-27.800325468219999
asS'j8m8b5z5q_raw.fits'
p23
(lp24
F53.152427974650003
aF-27.802223874980001
asS'j8m824suq_raw.fits'
p25
(lp26
F53.174043783229997
aF-27.799741308800002
asS'j8m84aqjq_raw.fits'
p27
(lp28
F53.175567836509998
aF-27.80076969572
asS'j8m851u3q_raw.fits'
p29
(lp30
F53.174054037799998
aF-27.79979593513
asS'j8m89fcxq_raw.fits'
p31
(lp32
F53.152524380039999
aF-27.802388716660001
asS'j8m880jsq_raw.fits'
p33
(lp34
F53.153826547949997
aF-27.80220681354
asS'j8m809etq_raw.fits'
p35
(lp36
F53.176223651009998
aF-27.799958741960001
asS'j8m8c4erq_raw.fits'
p37
(lp38
F53.152979714920001
aF-27.801600017830001
asS'j8m879byq_raw.fits'
p39
(lp40
F53.152778095110001
aF-27.80359673209
asS'j8m802etq_raw.fits'
p41
(lp42
F53.175428735570001
aF-27.799505743880001
asS'j8m80fcyq_raw.fits'
p43
(lp44
F53.174683700659997
aF-27.799034482250001
asS'j8m8adwlq_raw.fits'
p45
(lp46
F53.153088479269996
aF-27.801627778509999
asS'j8m879btq_raw.fits'
p47
(lp48
F53.152789175160002
aF-27.803550040529998
asS'j8m88fz3q_raw.fits'
p49
(lp50
F53.151925617769997
aF-27.802975743929998
asS'j8m809faq_raw.fits'
p51
(lp52
F53.176276432180003
aF-27.799968539839998
asS'j8m879chq_raw.fits'
p53
(lp54
F53.152757479169999
aF-27.803552621750001
asS'j8m8a5plq_raw.fits'
p55
(lp56
F53.151957897839999
aF-27.80305846617
asS'j8m873u8q_raw.fits'
p57
(lp58
F53.153293674019999
aF-27.802865791799999
asS'j8m842muq_raw.fits'
p59
(lp60
F53.174811293330002
aF-27.800296884409999
asS'j8m8a5oyq_raw.fits'
p61
(lp62
F53.151955545870003
aF-27.80296729654
asS'j8m8c4e2q_raw.fits'
p63
(lp64
F53.15299444939
aF-27.801554123399999
asS'j8m8b5zaq_raw.fits'
p65
(lp66
F53.152445061789997
aF-27.802269150240001
asS'j8m8a5pfq_raw.fits'
p67
(lp68
F53.151972632940002
aF-27.803012571850001
asS'j8m81cd2q_raw.fits'
p69
(lp70
F53.175661357819997
aF-27.80074111419
asS'j8m89fckq_raw.fits'
p71
(lp72
F53.152522027609997
aF-27.802297547039998
asS'j8m81ccoq_raw.fits'
p73
(lp74
F53.175609461400001
aF-27.800728100560001
asS'j8m809exq_raw.fits'
p75
(lp76
F53.176273510690002
aF-27.799940500360002
asS'j8m8adx9q_raw.fits'
p77
(lp78
F53.153090832159997
aF-27.801718948120001
asS'j8m83ajxq_raw.fits'
p79
(lp80
F53.174011709849999
aF-27.79980937857
asS'j8m8b5zhq_raw.fits'
p81
(lp82
F53.152430326999998
aF-27.8023150446
asS'j8m824tcq_raw.fits'
p83
(lp84
F53.174146839720002
aF-27.79973922077
asS'j8m897daq_raw.fits'
p85
(lp86
F53.153043817159997
aF-27.801682120580001
asS'j8m80fdaq_raw.fits'
p87
(lp88
F53.174736481250001
aF-27.79904428072
asS'j8m815nfq_raw.fits'
p89
(lp90
F53.175569636150001
aF-27.799453216970001
asS'j8m880l1q_raw.fits'
p91
(lp92
F53.153805931850002
aF-27.802162703360001
asS'j8m81cckq_raw.fits'
p93
(lp94
F53.175558284319997
aF-27.800743220760001
asS'j8m89fcqq_raw.fits'
p95
(lp96
F53.152539114809997
aF-27.80234282228
asS'j8m8bciwq_raw.fits'
p97
(lp98
F53.151824193750002
aF-27.802921843459998
asS'j8m83akaq_raw.fits'
p99
(lp100
F53.174063589550002
aF-27.799822410200001
asS'j8m83akiq_raw.fits'
p101
(lp102
F53.174012412670002
aF-27.79983752983
asS'j8m880jaq_raw.fits'
p103
(lp104
F53.153817011309997
aF-27.802116011719999
asS'j8m8a5puq_raw.fits'
p105
(lp106
F53.15194081077
aF-27.803013190849999
asS'j8m824t0q_raw.fits'
p107
(lp108
F53.174094960049999
aF-27.799726189160001
asS'j8m873toq_raw.fits'
p109
(lp110
F53.153304753770001
aF-27.802819100200001
asS'j8m82ciqq_raw.fits'
p111
(lp112
F53.17476894656
aF-27.800310348330001
asS'j8m8ccooq_raw.fits'
p113
(lp114
F53.152474989669997
aF-27.80226070274
asS'j8m880jgq_raw.fits'
p115
(lp116
F53.153837627409999
aF-27.802160121909999
asS'j8m85ah8q_raw.fits'
p117
(lp118
F53.174852215279998
aF-27.800227138219999
asS'j8m81cd8q_raw.fits'
p119
(lp120
F53.175610164639998
aF-27.800756251820001
asS'j8m88fzgq_raw.fits'
p121
(lp122
F53.15189379561
aF-27.802976362919999
asS'j8m82cjaq_raw.fits'
p123
(lp124
F53.17476964958
aF-27.800338499590001
asS'j8m851taq_raw.fits'
p125
(lp126
F53.174002158119997
aF-27.799782903490001
asS'j8m84aquq_raw.fits'
p127
(lp128
F53.175619716850001
aF-27.80078272678
asS'j8m8c4e8q_raw.fits'
p129
(lp130
F53.15301153667
aF-27.80159939859
asS'j8m809f4q_raw.fits'
p131
(lp132
F53.176326308939998
aF-27.79995027687
asS'j8m851tlq_raw.fits'
p133
(lp134
F53.17405333496
aF-27.799767783869999
asS'j8m873u2q_raw.fits'
p135
(lp136
F53.153314290040001
aF-27.802909902060001
asS'j8m802faq_raw.fits'
p137
(lp138
F53.175531392979998
aF-27.799497279570001
asS'j8m86chcq_raw.fits'
p139
(lp140
F53.153916644890003
aF-27.802183699370001
asS'j8m8b5znq_raw.fits'
p141
(lp142
F53.152413239849999
aF-27.802269769350001
asS'j8m834ahq_raw.fits'
p143
(lp144
F53.175506231619998
aF-27.80083125654
asS'j8m8bciqq_raw.fits'
p145
(lp146
F53.151841280760003
aF-27.802967118790001
asS'j8m83ajpq_raw.fits'
p147
(lp148
F53.173960532979997
aF-27.79982449817
asS'j8m8ccouq_raw.fits'
p149
(lp150
F53.152492099729997
aF-27.80230599455
asS'j8m85ah3q_raw.fits'
p151
(lp152
F53.174801038330003
aF-27.800242258139999
asS'j8m8ccp0q_raw.fits'
p153
(lp154
F53.152477342060003
aF-27.802351872359999
asS'j8m862gbq_raw.fits'
p155
(lp156
F53.175609461400001
aF-27.800728100560001
asS'j8m897d3q_raw.fits'
p157
(lp158
F53.153058551610002
aF-27.801636226140001
asS'j8m802ewq_raw.fits'
p159
(lp160
F53.175478612100001
aF-27.7994874814
asS'j8m834adq_raw.fits'
p161
(lp162
F53.17545505447
aF-27.800846376700001
asS'j8m88fyzq_raw.fits'
p163
(lp164
F53.15190853072
aF-27.802930468610001
asS'j8m85ahrq_raw.fits'
p165
(lp166
F53.174852918329996
aF-27.800255289479999
asS'j8m824tnq_raw.fits'
p167
(lp168
F53.174095662900001
aF-27.799754340429999
asS'j8m85ahlq_raw.fits'
p169
(lp170
F53.174904095279999
aF-27.80024016954
asS'j8m897dgq_raw.fits'
p171
(lp172
F53.153026729860002
aF-27.80163684539
asS'j8m8c4elq_raw.fits'
p173
(lp174
F53.152996802200001
aF-27.801645293010001
asS'j8m80fcsq_raw.fits'
p175
(lp176
F53.174633841130003
aF-27.799052723279999
asS'j8m88fzaq_raw.fits'
p177
(lp178
F53.15191088265
aF-27.803021638240001
asS'j8m8ccp6q_raw.fits'
p179
(lp180
F53.152460254879998
aF-27.80230659711
asS'j8m834b1q_raw.fits'
p181
(lp182
F53.175506934840001
aF-27.800859407800001
asS'j8m879bmq_raw.fits'
p183
(lp184
F53.152768559229997
aF-27.803505930189999
asS'j8m84aqyq_raw.fits'
p185
(lp186
F53.175568539750003
aF-27.80079784698
asS'j8m862g8s_raw.fits'
p187
(lp188
F53.175558284319997
aF-27.800743220760001
asS'j8m842mlq_raw.fits'
p189
(lp190
F53.174862470310003
aF-27.800281764489998
asS'j8m86chqq_raw.fits'
p191
(lp192
F53.153905565469998
aF-27.80223039102
asS'j8m8bcieq_raw.fits'
p193
(lp194
F53.151838928890001
aF-27.80287594915
asS'j8m873tvq_raw.fits'
p195
(lp196
F53.153325369789997
aF-27.80286321046
asS'j8m862gtq_raw.fits'
p197
(lp198
F53.175610164639998
aF-27.800756251820001
asS'j8m851tsq_raw.fits'
p199
(lp200
F53.174105214649998
aF-27.799780815489999
asS'j8m86chfq_raw.fits'
p201
(lp202
F53.153937261039999
aF-27.80222780954
asS'j8m8bcijq_raw.fits'
p203
(lp204
F53.151856015889997
aF-27.802921224479999
asS'j8m86chlq_raw.fits'
p205
(lp206
F53.153926181620001
aF-27.802274501189999
asS'j8m8adwvq_raw.fits'
p207
(lp208
F53.153105566599997
aF-27.801673053689999
asS'j8m862goq_raw.fits'
p209
(lp210
F53.175661357819997
aF-27.80074111419
asS'j8m82cj3q_raw.fits'
p211
(lp212
F53.174820845299998
aF-27.800323359429999
asS'j8m834auq_raw.fits'
p213
(lp214
F53.175558111980003
aF-27.800844287619999
asS'j8m84aqgq_raw.fits'
p215
(lp216
F53.175516659400003
aF-27.800784815899998
as.